target datalayout = "e-m:e-p270:32:32-p271:32:32-p272:64:64-i64:64-i128:128-f80:128-n8:16:32:64-S128"
target triple = "x86_64-pc-linux-gnu"

%struct.StringInfoData = type { ptr, i32, i32, i32 }
%union.anon.2 = type { float }

@.str.1 = private unnamed_addr constant [11 x i8] c"pqformat.c\00", align 1
@.str.2 = private unnamed_addr constant [28 x i8] c"unsupported integer size %d\00", align 1
@__func__.pq_getmsgint = private unnamed_addr constant [13 x i8] c"pq_getmsgint\00", align 1
@.str.3 = private unnamed_addr constant [34 x i8] c"insufficient data left in message\00", align 1
@__func__.pq_copymsgbytes = private unnamed_addr constant [16 x i8] c"pq_copymsgbytes\00", align 1

; Function Attrs: nounwind uwtable
define dso_local void @pq_copymsgbytes(ptr noundef %0, ptr noundef %1, i32 noundef %2) #0 {
  %4 = alloca ptr, align 8
  %5 = alloca ptr, align 8
  %6 = alloca i32, align 4
  store ptr %0, ptr %4, align 8
  store ptr %1, ptr %5, align 8
  store i32 %2, ptr %6, align 4
  %7 = load i32, ptr %6, align 4
  %8 = icmp slt i32 %7, 0
  br i1 %8, label %19, label %9

9:                                                ; preds = %3
  %10 = load i32, ptr %6, align 4
  %11 = load ptr, ptr %4, align 8
  %12 = getelementptr inbounds nuw %struct.StringInfoData, ptr %11, i32 0, i32 1
  %13 = load i32, ptr %12, align 8
  %14 = load ptr, ptr %4, align 8
  %15 = getelementptr inbounds nuw %struct.StringInfoData, ptr %14, i32 0, i32 3
  %16 = load i32, ptr %15, align 8
  %17 = sub i32 %13, %16
  %18 = icmp sgt i32 %10, %17
  br i1 %18, label %19, label %30

19:                                               ; preds = %9, %3
  br label %20

20:                                               ; preds = %19
  br i1 true, label %21, label %23

21:                                               ; preds = %20
  %22 = call zeroext i1 @errstart_cold(i32 noundef 21, ptr noundef null) #10
  br i1 %22, label %25, label %28

23:                                               ; preds = %20
  %24 = call zeroext i1 @errstart(i32 noundef 21, ptr noundef null)
  br i1 %24, label %25, label %28

25:                                               ; preds = %23, %21
  %26 = call i32 @errcode(i32 noundef 16908800)
  %27 = call i32 (ptr, ...) @errmsg(ptr noundef @.str.3)
  call void @errfinish(ptr noundef @.str.1, i32 noundef 533, ptr noundef @__func__.pq_copymsgbytes)
  br label %28

28:                                               ; preds = %25, %23, %21
  unreachable

29:                                               ; No predecessors!
  br label %30

30:                                               ; preds = %29, %9
  %31 = load ptr, ptr %5, align 8
  %32 = load ptr, ptr %4, align 8
  %33 = getelementptr inbounds nuw %struct.StringInfoData, ptr %32, i32 0, i32 0
  %34 = load ptr, ptr %33, align 8
  %35 = load ptr, ptr %4, align 8
  %36 = getelementptr inbounds nuw %struct.StringInfoData, ptr %35, i32 0, i32 3
  %37 = load i32, ptr %36, align 8
  %38 = sext i32 %37 to i64
  %39 = getelementptr inbounds i8, ptr %34, i64 %38
  %40 = load i32, ptr %6, align 4
  %41 = sext i32 %40 to i64
  call void @llvm.memcpy.p0.p0.i64(ptr align 1 %31, ptr align 1 %39, i64 %41, i1 false)
  %42 = load i32, ptr %6, align 4
  %43 = load ptr, ptr %4, align 8
  %44 = getelementptr inbounds nuw %struct.StringInfoData, ptr %43, i32 0, i32 3
  %45 = load i32, ptr %44, align 8
  %46 = add i32 %45, %42
  store i32 %46, ptr %44, align 8
  ret void
}

; Function Attrs: nounwind uwtable
define dso_local i32 @pq_getmsgint(ptr noundef %0, i32 noundef %1) #0 {
  %3 = alloca ptr, align 8
  %4 = alloca i32, align 4
  %5 = alloca i32, align 4
  %6 = alloca i8, align 1
  %7 = alloca i16, align 2
  %8 = alloca i32, align 4
  store ptr %0, ptr %3, align 8
  store i32 %1, ptr %4, align 4
  call void @llvm.lifetime.start.p0(i64 4, ptr %5) #8
  call void @llvm.lifetime.start.p0(i64 1, ptr %6) #8
  call void @llvm.lifetime.start.p0(i64 2, ptr %7) #8
  call void @llvm.lifetime.start.p0(i64 4, ptr %8) #8
  %9 = load i32, ptr %4, align 4
  switch i32 %9, label %23 [
    i32 1, label %10
    i32 2, label %14
    i32 4, label %19
  ]

10:                                               ; preds = %2
  %11 = load ptr, ptr %3, align 8
  call void @pq_copymsgbytes(ptr noundef %11, ptr noundef %6, i32 noundef 1)
  %12 = load i8, ptr %6, align 1
  %13 = zext i8 %12 to i32
  store i32 %13, ptr %5, align 4
  br label %35

14:                                               ; preds = %2
  %15 = load ptr, ptr %3, align 8
  call void @pq_copymsgbytes(ptr noundef %15, ptr noundef %7, i32 noundef 2)
  %16 = load i16, ptr %7, align 2
  %17 = call i16 @llvm.bswap.i16(i16 %16)
  %18 = zext i16 %17 to i32
  store i32 %18, ptr %5, align 4
  br label %35

19:                                               ; preds = %2
  %20 = load ptr, ptr %3, align 8
  call void @pq_copymsgbytes(ptr noundef %20, ptr noundef %8, i32 noundef 4)
  %21 = load i32, ptr %8, align 4
  %22 = call i32 @llvm.bswap.i32(i32 %21)
  store i32 %22, ptr %5, align 4
  br label %35

23:                                               ; preds = %2
  br label %24

24:                                               ; preds = %23
  br i1 true, label %25, label %27

25:                                               ; preds = %24
  %26 = call zeroext i1 @errstart_cold(i32 noundef 21, ptr noundef null) #10
  br i1 %26, label %29, label %32

27:                                               ; preds = %24
  %28 = call zeroext i1 @errstart(i32 noundef 21, ptr noundef null)
  br i1 %28, label %29, label %32

29:                                               ; preds = %27, %25
  %30 = load i32, ptr %4, align 4
  %31 = call i32 (ptr, ...) @errmsg_internal(ptr noundef @.str.2, i32 noundef %30)
  call void @errfinish(ptr noundef @.str.1, i32 noundef 437, ptr noundef @__func__.pq_getmsgint)
  br label %32

32:                                               ; preds = %29, %27, %25
  unreachable

33:                                               ; No predecessors!
  br label %34

34:                                               ; preds = %33
  store i32 0, ptr %5, align 4
  br label %35

35:                                               ; preds = %34, %19, %14, %10
  %36 = load i32, ptr %5, align 4
  call void @llvm.lifetime.end.p0(i64 4, ptr %8) #8
  call void @llvm.lifetime.end.p0(i64 2, ptr %7) #8
  call void @llvm.lifetime.end.p0(i64 1, ptr %6) #8
  call void @llvm.lifetime.end.p0(i64 4, ptr %5) #8
  ret i32 %36
}

; Function Attrs: nounwind uwtable
define dso_local float @pq_getmsgfloat4(ptr noundef %0) #0 {
  %2 = alloca ptr, align 8
  %3 = alloca %union.anon.2, align 4
  store ptr %0, ptr %2, align 8
  call void @llvm.lifetime.start.p0(i64 4, ptr %3) #8
  %4 = load ptr, ptr %2, align 8
  %5 = call i32 @pq_getmsgint(ptr noundef %4, i32 noundef 4)
  store i32 %5, ptr %3, align 4
  %6 = load float, ptr %3, align 4
  call void @llvm.lifetime.end.p0(i64 4, ptr %3) #8
  ret float %6
}